target datalayout = "e-m:e-p270:32:32-p271:32:32-p272:64:64-i64:64-i128:128-f80:128-n8:16:32:64-S128"
target triple = "x86_64-pc-linux-gnu"

%class.GPUShader = type <{ %"class.std::__cxx11::basic_string", i32, i32, i8, i8, [6 x i8] }>
%"class.std::__cxx11::basic_string" = type { %"struct.std::__cxx11::basic_string<char>::_Alloc_hider", i64, %union.anon }
%"struct.std::__cxx11::basic_string<char>::_Alloc_hider" = type { ptr }
%union.anon = type { i64, [8 x i8] }

@__glewCompileShader = external global ptr, align 8

; Function Attrs: mustprogress uwtable
define noundef zeroext i1 @_ZN9GPUShader7compileEv(ptr noundef nonnull align 8 dereferenceable(42) %0) #4 align 2 {
  %2 = alloca ptr, align 8
  store ptr %0, ptr %2, align 8
  %3 = load ptr, ptr %2, align 8
  %4 = load ptr, ptr @__glewCompileShader, align 8
  %5 = getelementptr inbounds %class.GPUShader, ptr %3, i32 0, i32 2
  %6 = load i32, ptr %5, align 4
  call void %4(i32 noundef %6)
  %7 = getelementptr inbounds %class.GPUShader, ptr %3, i32 0, i32 3
  %8 = load i8, ptr %7, align 8
  %9 = trunc i8 %8 to i1
  br i1 %9, label %10, label %11

10:                                               ; preds = %1
  call void @_ZN9GPUShader12printInfoLogEv(ptr noundef nonnull align 8 dereferenceable(42) %3)
  br label %11

11:                                               ; preds = %10, %1
  ret i1 true
}

; Function Attrs: mustprogress uwtable
define noundef zeroext i1 @_ZN9GPUShader14loadAndCompileEv(ptr noundef nonnull align 8 dereferenceable(42) %0) #4 align 2 {
  %2 = alloca ptr, align 8
  store ptr %0, ptr %2, align 8
  %3 = load ptr, ptr %2, align 8
  %4 = getelementptr inbounds %class.GPUShader, ptr %3, i32 0, i32 4
  %5 = load i8, ptr %4, align 1
  %6 = trunc i8 %5 to i1
  br i1 %6, label %7, label %11

7:                                                ; preds = %1
  %8 = call noundef zeroext i1 @_ZN9GPUShader4loadEv(ptr noundef nonnull align 8 dereferenceable(42) %3)
  br i1 %8, label %9, label %11

9:                                                ; preds = %7
  %10 = call noundef zeroext i1 @_ZN9GPUShader7compileEv(ptr noundef nonnull align 8 dereferenceable(42) %3)
  br label %11

11:                                               ; preds = %9, %7, %1
  %12 = phi i1 [ false, %7 ], [ false, %1 ], [ %10, %9 ]
  ret i1 %12
}