; Function Attrs: mustprogress uwtable
define noundef zeroext i1 @_ZN9GPUShader14loadAndCompileEv(ptr noundef nonnull align 8 dereferenceable(42) %0) local_unnamed_addr #3 align 2 {
  %2 = getelementptr inbounds nuw i8, ptr %0, i64 41
  %3 = load i8, ptr %2, align 1
  %4 = trunc i8 %3 to i1
  br i1 %4, label %5, label %_ZN9GPUShader7compileEv.exit

5:                                                ; preds = %1
  %6 = tail call noundef zeroext i1 @_ZN9GPUShader4loadEv(ptr noundef nonnull align 8 dereferenceable(42) %0)
  br i1 %6, label %7, label %_ZN9GPUShader7compileEv.exit

7:                                                ; preds = %5
  %8 = load ptr, ptr @__glewCompileShader, align 8
  %9 = getelementptr inbounds nuw i8, ptr %0, i64 36
  %10 = load i32, ptr %9, align 4
  tail call void %8(i32 noundef %10)
  %11 = getelementptr inbounds nuw i8, ptr %0, i64 40
  %12 = load i8, ptr %11, align 8
  %13 = trunc i8 %12 to i1
  br i1 %13, label %14, label %_ZN9GPUShader7compileEv.exit

14:                                               ; preds = %7
  tail call void @_ZN9GPUShader12printInfoLogEv(ptr noundef nonnull align 8 dereferenceable(42) %0)
  br label %_ZN9GPUShader7compileEv.exit

_ZN9GPUShader7compileEv.exit:                     ; preds = %14, %7, %5, %1
  %15 = phi i1 [ false, %5 ], [ false, %1 ], [ true, %7 ], [ true, %14 ]
  ret i1 %15
}